; Function Attrs: mustprogress nofree norecurse nosync nounwind willreturn memory(argmem: readwrite) uwtable
define hidden noundef range(i32 0, 32) i32 @_ZN4cvc58internal6theory15TheoryIdSetUtil6setPopERj(ptr noundef nonnull align 4 captures(none) dereferenceable(4) %0) local_unnamed_addr #0 align 2 {
  %2 = load i32, ptr %0, align 4, !tbaa !17
  %.not = icmp eq i32 %2, 0
  br i1 %.not, label %7, label %3

3:                                                ; preds = %1
  %cttz = tail call range(i32 0, 33) i32 @llvm.cttz.i32(i32 %2, i1 true)
  %4 = shl nuw i32 1, %cttz
  %5 = xor i32 %4, -1
  %6 = and i32 %2, %5
  store i32 %6, ptr %0, align 4, !tbaa !17
  br label %7

7:                                                ; preds = %1, %3
  %.0 = phi i32 [ %cttz, %3 ], [ 14, %1 ]
  ret i32 %.0
}